target datalayout = "e-m:e-p270:32:32-p271:32:32-p272:64:64-i64:64-i128:128-f80:128-n8:16:32:64-S128"
target triple = "x86_64-pc-linux-gnu"

; Function Attrs: nounwind uwtable
define internal i32 @clamp(i32 noundef %0, i32 noundef %1, i32 noundef %2) #0 {
  %4 = alloca i32, align 4
  %5 = alloca i32, align 4
  %6 = alloca i32, align 4
  store i32 %0, ptr %4, align 4
  store i32 %1, ptr %5, align 4
  store i32 %2, ptr %6, align 4
  %7 = load i32, ptr %4, align 4
  %8 = load i32, ptr %5, align 4
  %9 = icmp slt i32 %7, %8
  br i1 %9, label %10, label %12

10:                                               ; preds = %3
  %11 = load i32, ptr %5, align 4
  br label %22

12:                                               ; preds = %3
  %13 = load i32, ptr %4, align 4
  %14 = load i32, ptr %6, align 4
  %15 = icmp sgt i32 %13, %14
  br i1 %15, label %16, label %18

16:                                               ; preds = %12
  %17 = load i32, ptr %6, align 4
  br label %20

18:                                               ; preds = %12
  %19 = load i32, ptr %4, align 4
  br label %20

20:                                               ; preds = %18, %16
  %21 = phi i32 [ %17, %16 ], [ %19, %18 ]
  br label %22

22:                                               ; preds = %20, %10
  %23 = phi i32 [ %11, %10 ], [ %21, %20 ]
  ret i32 %23
}

; Function Attrs: nounwind uwtable
define internal zeroext i16 @clip_pixel_highbd(i32 noundef %0, i32 noundef %1) #0 {
  %3 = alloca i16, align 2
  %4 = alloca i32, align 4
  %5 = alloca i32, align 4
  store i32 %0, ptr %4, align 4
  store i32 %1, ptr %5, align 4
  %6 = load i32, ptr %5, align 4
  switch i32 %6, label %8 [
    i32 8, label %7
    i32 10, label %12
    i32 12, label %16
  ]

7:                                                ; preds = %2
  br label %8

8:                                                ; preds = %7, %2
  %9 = load i32, ptr %4, align 4
  %10 = call i32 @clamp(i32 noundef %9, i32 noundef 0, i32 noundef 255)
  %11 = trunc i32 %10 to i16
  store i16 %11, ptr %3, align 2
  br label %20

12:                                               ; preds = %2
  %13 = load i32, ptr %4, align 4
  %14 = call i32 @clamp(i32 noundef %13, i32 noundef 0, i32 noundef 1023)
  %15 = trunc i32 %14 to i16
  store i16 %15, ptr %3, align 2
  br label %20

16:                                               ; preds = %2
  %17 = load i32, ptr %4, align 4
  %18 = call i32 @clamp(i32 noundef %17, i32 noundef 0, i32 noundef 4095)
  %19 = trunc i32 %18 to i16
  store i16 %19, ptr %3, align 2
  br label %20

20:                                               ; preds = %16, %12, %8
  %21 = load i16, ptr %3, align 2
  ret i16 %21
}

; Function Attrs: nounwind uwtable
define internal i32 @get_scaled_luma_q0(i32 noundef %0, i16 noundef signext %1) #0 {
  %3 = alloca i32, align 4
  %4 = alloca i16, align 2
  %5 = alloca i32, align 4
  store i32 %0, ptr %3, align 4
  store i16 %1, ptr %4, align 2
  %6 = load i32, ptr %3, align 4
  %7 = load i16, ptr %4, align 2
  %8 = sext i16 %7 to i32
  %9 = mul nsw i32 %6, %8
  store i32 %9, ptr %5, align 4
  %10 = load i32, ptr %5, align 4
  %11 = icmp slt i32 %10, 0
  br i1 %11, label %12, label %18

12:                                               ; preds = %2
  %13 = load i32, ptr %5, align 4
  %14 = sub nsw i32 0, %13
  %15 = add nsw i32 %14, 32
  %16 = ashr i32 %15, 6
  %17 = sub nsw i32 0, %16
  br label %22

18:                                               ; preds = %2
  %19 = load i32, ptr %5, align 4
  %20 = add nsw i32 %19, 32
  %21 = ashr i32 %20, 6
  br label %22

22:                                               ; preds = %18, %12
  %23 = phi i32 [ %17, %12 ], [ %21, %18 ]
  ret i32 %23
}

; Function Attrs: nounwind uwtable
define hidden void @cfl_predict_hbd_c(ptr noundef %0, ptr noundef %1, i32 noundef %2, i32 noundef %3, i32 noundef %4, i32 noundef %5, i32 noundef %6) #0 {
  %8 = alloca ptr, align 8
  %9 = alloca ptr, align 8
  %10 = alloca i32, align 4
  %11 = alloca i32, align 4
  %12 = alloca i32, align 4
  %13 = alloca i32, align 4
  %14 = alloca i32, align 4
  %15 = alloca i32, align 4
  %16 = alloca i32, align 4
  store ptr %0, ptr %8, align 8
  store ptr %1, ptr %9, align 8
  store i32 %2, ptr %10, align 4
  store i32 %3, ptr %11, align 4
  store i32 %4, ptr %12, align 4
  store i32 %5, ptr %13, align 4
  store i32 %6, ptr %14, align 4
  store i32 0, ptr %15, align 4
  br label %17

17:                                               ; preds = %57, %7
  %18 = load i32, ptr %15, align 4
  %19 = load i32, ptr %14, align 4
  %20 = icmp slt i32 %18, %19
  br i1 %20, label %21, label %60

21:                                               ; preds = %17
  store i32 0, ptr %16, align 4
  br label %22

22:                                               ; preds = %47, %21
  %23 = load i32, ptr %16, align 4
  %24 = load i32, ptr %13, align 4
  %25 = icmp slt i32 %23, %24
  br i1 %25, label %26, label %50

26:                                               ; preds = %22
  %27 = load i32, ptr %11, align 4
  %28 = load ptr, ptr %8, align 8
  %29 = load i32, ptr %16, align 4
  %30 = sext i32 %29 to i64
  %31 = getelementptr inbounds i16, ptr %28, i64 %30
  %32 = load i16, ptr %31, align 2
  %33 = call i32 @get_scaled_luma_q0(i32 noundef %27, i16 noundef signext %32)
  %34 = load ptr, ptr %9, align 8
  %35 = load i32, ptr %16, align 4
  %36 = sext i32 %35 to i64
  %37 = getelementptr inbounds i16, ptr %34, i64 %36
  %38 = load i16, ptr %37, align 2
  %39 = zext i16 %38 to i32
  %40 = add nsw i32 %33, %39
  %41 = load i32, ptr %12, align 4
  %42 = call zeroext i16 @clip_pixel_highbd(i32 noundef %40, i32 noundef %41)
  %43 = load ptr, ptr %9, align 8
  %44 = load i32, ptr %16, align 4
  %45 = sext i32 %44 to i64
  %46 = getelementptr inbounds i16, ptr %43, i64 %45
  store i16 %42, ptr %46, align 2
  br label %47

47:                                               ; preds = %26
  %48 = load i32, ptr %16, align 4
  %49 = add nsw i32 %48, 1
  store i32 %49, ptr %16, align 4
  br label %22, !llvm.loop !13

50:                                               ; preds = %22
  %51 = load i32, ptr %10, align 4
  %52 = load ptr, ptr %9, align 8
  %53 = sext i32 %51 to i64
  %54 = getelementptr inbounds i16, ptr %52, i64 %53
  store ptr %54, ptr %9, align 8
  %55 = load ptr, ptr %8, align 8
  %56 = getelementptr inbounds i16, ptr %55, i64 32
  store ptr %56, ptr %8, align 8
  br label %57

57:                                               ; preds = %50
  %58 = load i32, ptr %15, align 4
  %59 = add nsw i32 %58, 1
  store i32 %59, ptr %15, align 4
  br label %17, !llvm.loop !14

60:                                               ; preds = %17
  ret void
}