; Function Attrs: nofree norecurse nosync nounwind memory(argmem: readwrite) uwtable
define hidden void @cfl_predict_hbd_c(ptr nocapture noundef readonly %0, ptr nocapture noundef %1, i32 noundef %2, i32 noundef %3, i32 noundef %4, i32 noundef %5, i32 noundef %6) local_unnamed_addr #5 {
  %8 = icmp sgt i32 %6, 0
  br i1 %8, label %.preheader.lr.ph, label %._crit_edge33

.preheader.lr.ph:                                 ; preds = %7
  %9 = icmp sgt i32 %5, 0
  %10 = sext i32 %2 to i64
  br i1 %9, label %.preheader.lr.ph.split.us, label %._crit_edge33

.preheader.lr.ph.split.us:                        ; preds = %.preheader.lr.ph
  %wide.trip.count61 = zext nneg i32 %5 to i64
  switch i32 %4, label %.preheader.us [
    i32 12, label %.preheader.us.us
    i32 10, label %.preheader.us.us41
  ]

.preheader.us.us:                                 ; preds = %.preheader.lr.ph.split.us, %._crit_edge.split.us.us.us
  %.01632.us.us = phi i32 [ %34, %._crit_edge.split.us.us.us ], [ 0, %.preheader.lr.ph.split.us ]
  %.01729.us.us = phi ptr [ %33, %._crit_edge.split.us.us.us ], [ %0, %.preheader.lr.ph.split.us ]
  %.01826.us.us = phi ptr [ %32, %._crit_edge.split.us.us.us ], [ %1, %.preheader.lr.ph.split.us ]
  br label %11

11:                                               ; preds = %get_scaled_luma_q0.exit.us.us.us, %.preheader.us.us
  %indvars.iv52 = phi i64 [ %indvars.iv.next53, %get_scaled_luma_q0.exit.us.us.us ], [ 0, %.preheader.us.us ]
  %12 = getelementptr inbounds i16, ptr %.01729.us.us, i64 %indvars.iv52
  %13 = load i16, ptr %12, align 2
  %14 = sext i16 %13 to i32
  %15 = mul nsw i32 %3, %14
  %16 = icmp slt i32 %15, 0
  br i1 %16, label %20, label %17

17:                                               ; preds = %11
  %18 = add nuw nsw i32 %15, 32
  %19 = lshr i32 %18, 6
  br label %get_scaled_luma_q0.exit.us.us.us

20:                                               ; preds = %11
  %21 = sub i32 32, %15
  %22 = lshr i32 %21, 6
  %23 = sub nsw i32 0, %22
  br label %get_scaled_luma_q0.exit.us.us.us

get_scaled_luma_q0.exit.us.us.us:                 ; preds = %20, %17
  %24 = phi i32 [ %23, %20 ], [ %19, %17 ]
  %25 = getelementptr inbounds i16, ptr %.01826.us.us, i64 %indvars.iv52
  %26 = load i16, ptr %25, align 2
  %27 = zext i16 %26 to i32
  %28 = add nsw i32 %24, %27
  %29 = tail call i32 @llvm.umin.i32(i32 %28, i32 4095)
  %30 = icmp slt i32 %28, 0
  %31 = trunc nuw nsw i32 %29 to i16
  %.0.i.us.us.us = select i1 %30, i16 0, i16 %31
  store i16 %.0.i.us.us.us, ptr %25, align 2
  %indvars.iv.next53 = add nuw nsw i64 %indvars.iv52, 1
  %exitcond56.not = icmp eq i64 %indvars.iv.next53, %wide.trip.count61
  br i1 %exitcond56.not, label %._crit_edge.split.us.us.us, label %11, !llvm.loop !13

._crit_edge.split.us.us.us:                       ; preds = %get_scaled_luma_q0.exit.us.us.us
  %32 = getelementptr inbounds i16, ptr %.01826.us.us, i64 %10
  %33 = getelementptr inbounds i8, ptr %.01729.us.us, i64 64
  %34 = add nuw nsw i32 %.01632.us.us, 1
  %exitcond57.not = icmp eq i32 %34, %6
  br i1 %exitcond57.not, label %._crit_edge33, label %.preheader.us.us, !llvm.loop !14

.preheader.us.us41:                               ; preds = %.preheader.lr.ph.split.us, %._crit_edge.split.split.us.us.us
  %.01632.us.us42 = phi i32 [ %58, %._crit_edge.split.split.us.us.us ], [ 0, %.preheader.lr.ph.split.us ]
  %.01729.us.us43 = phi ptr [ %57, %._crit_edge.split.split.us.us.us ], [ %0, %.preheader.lr.ph.split.us ]
  %.01826.us.us44 = phi ptr [ %56, %._crit_edge.split.split.us.us.us ], [ %1, %.preheader.lr.ph.split.us ]
  br label %35

35:                                               ; preds = %get_scaled_luma_q0.exit.us22.us.us, %.preheader.us.us41
  %indvars.iv = phi i64 [ %indvars.iv.next, %get_scaled_luma_q0.exit.us22.us.us ], [ 0, %.preheader.us.us41 ]
  %36 = getelementptr inbounds i16, ptr %.01729.us.us43, i64 %indvars.iv
  %37 = load i16, ptr %36, align 2
  %38 = sext i16 %37 to i32
  %39 = mul nsw i32 %3, %38
  %40 = icmp slt i32 %39, 0
  br i1 %40, label %44, label %41

41:                                               ; preds = %35
  %42 = add nuw nsw i32 %39, 32
  %43 = lshr i32 %42, 6
  br label %get_scaled_luma_q0.exit.us22.us.us

44:                                               ; preds = %35
  %45 = sub i32 32, %39
  %46 = lshr i32 %45, 6
  %47 = sub nsw i32 0, %46
  br label %get_scaled_luma_q0.exit.us22.us.us

get_scaled_luma_q0.exit.us22.us.us:               ; preds = %44, %41
  %48 = phi i32 [ %47, %44 ], [ %43, %41 ]
  %49 = getelementptr inbounds i16, ptr %.01826.us.us44, i64 %indvars.iv
  %50 = load i16, ptr %49, align 2
  %51 = zext i16 %50 to i32
  %52 = add nsw i32 %48, %51
  %53 = tail call i32 @llvm.umin.i32(i32 %52, i32 1023)
  %54 = icmp slt i32 %52, 0
  %55 = trunc nuw nsw i32 %53 to i16
  %.0.i.us25.us.us = select i1 %54, i16 0, i16 %55
  store i16 %.0.i.us25.us.us, ptr %49, align 2
  %indvars.iv.next = add nuw nsw i64 %indvars.iv, 1
  %exitcond.not = icmp eq i64 %indvars.iv.next, %wide.trip.count61
  br i1 %exitcond.not, label %._crit_edge.split.split.us.us.us, label %35, !llvm.loop !13

._crit_edge.split.split.us.us.us:                 ; preds = %get_scaled_luma_q0.exit.us22.us.us
  %56 = getelementptr inbounds i16, ptr %.01826.us.us44, i64 %10
  %57 = getelementptr inbounds i8, ptr %.01729.us.us43, i64 64
  %58 = add nuw nsw i32 %.01632.us.us42, 1
  %exitcond51.not = icmp eq i32 %58, %6
  br i1 %exitcond51.not, label %._crit_edge33, label %.preheader.us.us41, !llvm.loop !14

.preheader.us:                                    ; preds = %.preheader.lr.ph.split.us, %._crit_edge.split.split.us37
  %.01632.us = phi i32 [ %82, %._crit_edge.split.split.us37 ], [ 0, %.preheader.lr.ph.split.us ]
  %.01729.us = phi ptr [ %81, %._crit_edge.split.split.us37 ], [ %0, %.preheader.lr.ph.split.us ]
  %.01826.us = phi ptr [ %80, %._crit_edge.split.split.us37 ], [ %1, %.preheader.lr.ph.split.us ]
  br label %59

59:                                               ; preds = %.preheader.us, %get_scaled_luma_q0.exit.us35
  %indvars.iv58 = phi i64 [ 0, %.preheader.us ], [ %indvars.iv.next59, %get_scaled_luma_q0.exit.us35 ]
  %60 = getelementptr inbounds i16, ptr %.01729.us, i64 %indvars.iv58
  %61 = load i16, ptr %60, align 2
  %62 = sext i16 %61 to i32
  %63 = mul nsw i32 %3, %62
  %64 = icmp slt i32 %63, 0
  br i1 %64, label %68, label %65

65:                                               ; preds = %59
  %66 = add nuw nsw i32 %63, 32
  %67 = lshr i32 %66, 6
  br label %get_scaled_luma_q0.exit.us35

68:                                               ; preds = %59
  %69 = sub i32 32, %63
  %70 = lshr i32 %69, 6
  %71 = sub nsw i32 0, %70
  br label %get_scaled_luma_q0.exit.us35

get_scaled_luma_q0.exit.us35:                     ; preds = %68, %65
  %72 = phi i32 [ %71, %68 ], [ %67, %65 ]
  %73 = getelementptr inbounds i16, ptr %.01826.us, i64 %indvars.iv58
  %74 = load i16, ptr %73, align 2
  %75 = zext i16 %74 to i32
  %76 = add nsw i32 %72, %75
  %77 = tail call i32 @llvm.umin.i32(i32 %76, i32 255)
  %78 = icmp slt i32 %76, 0
  %79 = trunc nuw nsw i32 %77 to i16
  %.0.i.us36 = select i1 %78, i16 0, i16 %79
  store i16 %.0.i.us36, ptr %73, align 2
  %indvars.iv.next59 = add nuw nsw i64 %indvars.iv58, 1
  %exitcond62.not = icmp eq i64 %indvars.iv.next59, %wide.trip.count61
  br i1 %exitcond62.not, label %._crit_edge.split.split.us37, label %59, !llvm.loop !13

._crit_edge.split.split.us37:                     ; preds = %get_scaled_luma_q0.exit.us35
  %80 = getelementptr inbounds i16, ptr %.01826.us, i64 %10
  %81 = getelementptr inbounds i8, ptr %.01729.us, i64 64
  %82 = add nuw nsw i32 %.01632.us, 1
  %exitcond63.not = icmp eq i32 %82, %6
  br i1 %exitcond63.not, label %._crit_edge33, label %.preheader.us, !llvm.loop !14

._crit_edge33:                                    ; preds = %._crit_edge.split.split.us.us.us, %._crit_edge.split.us.us.us, %._crit_edge.split.split.us37, %.preheader.lr.ph, %7
  ret void
}